; ModuleID = '32/1550.c'
source_filename = "32/1550.c"
target datalayout = "e-m:e-p270:32:32-p271:32:32-p272:64:64-i64:64-f80:128-n8:16:32:64-S128"
target triple = "x86_64-pc-linux-gnu"

@.str = private unnamed_addr constant [3 x i8] c"%d\00", align 1
@.str.1 = private unnamed_addr constant [3 x i8] c"%s\00", align 1
@.str.2 = private unnamed_addr constant [4 x i8] c"%s\0A\00", align 1

; Function Attrs: noinline nounwind uwtable
define dso_local void @checkit(i8* %0) #0 {
  %2 = alloca i8*, align 8
  %3 = alloca i32, align 4
  %4 = alloca i32, align 4
  store i8* %0, i8** %2, align 8
  %5 = load i8*, i8** %2, align 8
  %6 = call i64 @strlen(i8* %5) #3
  %7 = trunc i64 %6 to i32
  store i32 %7, i32* %4, align 4
  store i32 0, i32* %3, align 4
  br label %8

8:                                                ; preds = %23, %1
  %9 = load i32, i32* %3, align 4
  %10 = load i32, i32* %4, align 4
  %11 = icmp slt i32 %9, %10
  br i1 %11, label %12, label %26

12:                                               ; preds = %8
  %13 = load i8*, i8** %2, align 8
  %14 = load i32, i32* %3, align 4
  %15 = add nsw i32 %14, 1
  %16 = sext i32 %15 to i64
  %17 = getelementptr inbounds i8, i8* %13, i64 %16
  %18 = load i8, i8* %17, align 1
  %19 = load i8*, i8** %2, align 8
  %20 = load i32, i32* %3, align 4
  %21 = sext i32 %20 to i64
  %22 = getelementptr inbounds i8, i8* %19, i64 %21
  store i8 %18, i8* %22, align 1
  br label %23

23:                                               ; preds = %12
  %24 = load i32, i32* %3, align 4
  %25 = add nsw i32 %24, 1
  store i32 %25, i32* %3, align 4
  br label %8

26:                                               ; preds = %8
  %27 = load i8*, i8** %2, align 8
  %28 = getelementptr inbounds i8, i8* %27, i64 0
  %29 = load i8, i8* %28, align 1
  %30 = sext i8 %29 to i32
  %31 = icmp eq i32 %30, 48
  br i1 %31, label %32, label %34

32:                                               ; preds = %26
  %33 = load i8*, i8** %2, align 8
  call void @checkit(i8* %33)
  br label %34

34:                                               ; preds = %32, %26
  ret void
}

; Function Attrs: nounwind readonly
declare dso_local i64 @strlen(i8*) #1

; Function Attrs: noinline nounwind uwtable
define dso_local void @doit(i8* %0, i8* %1) #0 {
  %3 = alloca i8*, align 8
  %4 = alloca i8*, align 8
  %5 = alloca i32, align 4
  %6 = alloca i32, align 4
  %7 = alloca i32, align 4
  %8 = alloca i32, align 4
  store i8* %0, i8** %3, align 8
  store i8* %1, i8** %4, align 8
  %9 = load i8*, i8** %3, align 8
  %10 = call i64 @strlen(i8* %9) #3
  %11 = trunc i64 %10 to i32
  store i32 %11, i32* %5, align 4
  %12 = load i8*, i8** %4, align 8
  %13 = call i64 @strlen(i8* %12) #3
  %14 = trunc i64 %13 to i32
  store i32 %14, i32* %6, align 4
  store i32 0, i32* %7, align 4
  br label %15

15:                                               ; preds = %73, %2
  %16 = load i32, i32* %7, align 4
  %17 = load i32, i32* %6, align 4
  %18 = icmp slt i32 %16, %17
  br i1 %18, label %19, label %76

19:                                               ; preds = %15
  %20 = load i8*, i8** %3, align 8
  %21 = load i32, i32* %5, align 4
  %22 = sub nsw i32 %21, 1
  %23 = load i32, i32* %7, align 4
  %24 = sub nsw i32 %22, %23
  %25 = sext i32 %24 to i64
  %26 = getelementptr inbounds i8, i8* %20, i64 %25
  %27 = load i8, i8* %26, align 1
  %28 = sext i8 %27 to i32
  %29 = load i8*, i8** %4, align 8
  %30 = load i32, i32* %6, align 4
  %31 = sub nsw i32 %30, 1
  %32 = load i32, i32* %7, align 4
  %33 = sub nsw i32 %31, %32
  %34 = sext i32 %33 to i64
  %35 = getelementptr inbounds i8, i8* %29, i64 %34
  %36 = load i8, i8* %35, align 1
  %37 = sext i8 %36 to i32
  %38 = sub nsw i32 %28, %37
  %39 = add nsw i32 %38, 48
  store i32 %39, i32* %8, align 4
  %40 = load i32, i32* %8, align 4
  %41 = icmp slt i32 %40, 48
  br i1 %41, label %42, label %63

42:                                               ; preds = %19
  %43 = load i8*, i8** %3, align 8
  %44 = load i32, i32* %5, align 4
  %45 = sub nsw i32 %44, 2
  %46 = load i32, i32* %7, align 4
  %47 = sub nsw i32 %45, %46
  %48 = sext i32 %47 to i64
  %49 = getelementptr inbounds i8, i8* %43, i64 %48
  %50 = load i8, i8* %49, align 1
  %51 = sext i8 %50 to i32
  %52 = sub nsw i32 %51, 1
  %53 = trunc i32 %52 to i8
  %54 = load i8*, i8** %3, align 8
  %55 = load i32, i32* %5, align 4
  %56 = sub nsw i32 %55, 2
  %57 = load i32, i32* %7, align 4
  %58 = sub nsw i32 %56, %57
  %59 = sext i32 %58 to i64
  %60 = getelementptr inbounds i8, i8* %54, i64 %59
  store i8 %53, i8* %60, align 1
  %61 = load i32, i32* %8, align 4
  %62 = add nsw i32 %61, 10
  store i32 %62, i32* %8, align 4
  br label %63

63:                                               ; preds = %42, %19
  %64 = load i32, i32* %8, align 4
  %65 = trunc i32 %64 to i8
  %66 = load i8*, i8** %3, align 8
  %67 = load i32, i32* %5, align 4
  %68 = sub nsw i32 %67, 1
  %69 = load i32, i32* %7, align 4
  %70 = sub nsw i32 %68, %69
  %71 = sext i32 %70 to i64
  %72 = getelementptr inbounds i8, i8* %66, i64 %71
  store i8 %65, i8* %72, align 1
  br label %73

73:                                               ; preds = %63
  %74 = load i32, i32* %7, align 4
  %75 = add nsw i32 %74, 1
  store i32 %75, i32* %7, align 4
  br label %15

76:                                               ; preds = %15
  %77 = load i8*, i8** %3, align 8
  %78 = getelementptr inbounds i8, i8* %77, i64 0
  %79 = load i8, i8* %78, align 1
  %80 = sext i8 %79 to i32
  %81 = icmp eq i32 %80, 48
  br i1 %81, label %82, label %84

82:                                               ; preds = %76
  %83 = load i8*, i8** %3, align 8
  call void @checkit(i8* %83)
  br label %84

84:                                               ; preds = %82, %76
  ret void
}

; Function Attrs: noinline nounwind uwtable
define dso_local void @main() #0 {
  %1 = alloca [20 x [101 x i8]], align 16
  %2 = alloca [20 x [101 x i8]], align 16
  %3 = alloca i32, align 4
  %4 = alloca i32, align 4
  %5 = call i32 (i8*, ...) @__isoc99_scanf(i8* getelementptr inbounds ([3 x i8], [3 x i8]* @.str, i64 0, i64 0), i32* %3)
  %6 = getelementptr inbounds [20 x [101 x i8]], [20 x [101 x i8]]* %1, i64 0, i64 0
  %7 = getelementptr inbounds [101 x i8], [101 x i8]* %6, i64 0, i64 0
  %8 = call i32 (i8*, ...) @__isoc99_scanf(i8* getelementptr inbounds ([3 x i8], [3 x i8]* @.str.1, i64 0, i64 0), i8* %7)
  %9 = getelementptr inbounds [20 x [101 x i8]], [20 x [101 x i8]]* %2, i64 0, i64 0
  %10 = getelementptr inbounds [101 x i8], [101 x i8]* %9, i64 0, i64 0
  %11 = call i32 (i8*, ...) @__isoc99_scanf(i8* getelementptr inbounds ([3 x i8], [3 x i8]* @.str.1, i64 0, i64 0), i8* %10)
  store i32 1, i32* %4, align 4
  br label %12

12:                                               ; preds = %28, %0
  %13 = load i32, i32* %4, align 4
  %14 = load i32, i32* %3, align 4
  %15 = icmp slt i32 %13, %14
  br i1 %15, label %16, label %31

16:                                               ; preds = %12
  %17 = call i32 @getchar()
  %18 = load i32, i32* %4, align 4
  %19 = sext i32 %18 to i64
  %20 = getelementptr inbounds [20 x [101 x i8]], [20 x [101 x i8]]* %1, i64 0, i64 %19
  %21 = getelementptr inbounds [101 x i8], [101 x i8]* %20, i64 0, i64 0
  %22 = call i32 (i8*, ...) @__isoc99_scanf(i8* getelementptr inbounds ([3 x i8], [3 x i8]* @.str.1, i64 0, i64 0), i8* %21)
  %23 = load i32, i32* %4, align 4
  %24 = sext i32 %23 to i64
  %25 = getelementptr inbounds [20 x [101 x i8]], [20 x [101 x i8]]* %2, i64 0, i64 %24
  %26 = getelementptr inbounds [101 x i8], [101 x i8]* %25, i64 0, i64 0
  %27 = call i32 (i8*, ...) @__isoc99_scanf(i8* getelementptr inbounds ([3 x i8], [3 x i8]* @.str.1, i64 0, i64 0), i8* %26)
  br label %28

28:                                               ; preds = %16
  %29 = load i32, i32* %4, align 4
  %30 = add nsw i32 %29, 1
  store i32 %30, i32* %4, align 4
  br label %12

31:                                               ; preds = %12
  store i32 0, i32* %4, align 4
  br label %32

32:                                               ; preds = %50, %31
  %33 = load i32, i32* %4, align 4
  %34 = load i32, i32* %3, align 4
  %35 = icmp slt i32 %33, %34
  br i1 %35, label %36, label %53

36:                                               ; preds = %32
  %37 = load i32, i32* %4, align 4
  %38 = sext i32 %37 to i64
  %39 = getelementptr inbounds [20 x [101 x i8]], [20 x [101 x i8]]* %1, i64 0, i64 %38
  %40 = getelementptr inbounds [101 x i8], [101 x i8]* %39, i64 0, i64 0
  %41 = load i32, i32* %4, align 4
  %42 = sext i32 %41 to i64
  %43 = getelementptr inbounds [20 x [101 x i8]], [20 x [101 x i8]]* %2, i64 0, i64 %42
  %44 = getelementptr inbounds [101 x i8], [101 x i8]* %43, i64 0, i64 0
  call void @doit(i8* %40, i8* %44)
  %45 = load i32, i32* %4, align 4
  %46 = sext i32 %45 to i64
  %47 = getelementptr inbounds [20 x [101 x i8]], [20 x [101 x i8]]* %1, i64 0, i64 %46
  %48 = getelementptr inbounds [101 x i8], [101 x i8]* %47, i64 0, i64 0
  %49 = call i32 (i8*, ...) @printf(i8* getelementptr inbounds ([4 x i8], [4 x i8]* @.str.2, i64 0, i64 0), i8* %48)
  br label %50

50:                                               ; preds = %36
  %51 = load i32, i32* %4, align 4
  %52 = add nsw i32 %51, 1
  store i32 %52, i32* %4, align 4
  br label %32

53:                                               ; preds = %32
  ret void
}

declare dso_local i32 @__isoc99_scanf(i8*, ...) #2

declare dso_local i32 @getchar() #2

declare dso_local i32 @printf(i8*, ...) #2


!llvm.module.flags = !{!0}
!llvm.ident = !{!1}

!0 = !{i32 1, !"wchar_size", i32 4}
!1 = !{!"clang version 10.0.0-4ubuntu1 "}
